target datalayout = "e-m:e-p270:32:32-p271:32:32-p272:64:64-i64:64-i128:128-f80:128-n8:16:32:64-S128"
target triple = "x86_64-pc-linux-gnu"

%struct.AVFilterContext = type { ptr, ptr, ptr, ptr, ptr, i32, ptr, ptr, i32, ptr, ptr, i32, i32, ptr, ptr, ptr, ptr, i32, ptr, i32, i32 }
%struct.HeadphoneContext = type { ptr, ptr, i32, i32, i32, i32, i32, i32, i32, i32, float, float, float, [2 x ptr], [2 x i32], i32, i32, i32, i32, [2 x ptr], [2 x ptr], [2 x ptr], [2 x ptr], [2 x ptr], [2 x ptr], [2 x ptr], [2 x ptr], [2 x ptr], [2 x ptr], ptr, [64 x %struct.hrir_inputs], %struct.AVChannelLayout, [64 x i32], [64 x i8] }
%struct.hrir_inputs = type { i32, i32 }
%struct.AVChannelLayout = type { i32, i32, %union.anon.1, ptr }
%union.anon.1 = type { i64 }
%struct.AVFilterFormatsConfig = type { ptr, ptr, ptr, ptr, ptr }

@query_formats.formats = internal constant [2 x i32] [i32 3, i32 -1], align 4

; Function Attrs: nounwind uwtable
define internal i32 @query_formats(ptr noundef %0, ptr noundef %1, ptr noundef %2) #1 {
  %4 = alloca i32, align 4
  %5 = alloca ptr, align 8
  %6 = alloca ptr, align 8
  %7 = alloca ptr, align 8
  %8 = alloca ptr, align 8
  %9 = alloca ptr, align 8
  %10 = alloca ptr, align 8
  %11 = alloca ptr, align 8
  %12 = alloca i32, align 4
  %13 = alloca i32, align 4
  %14 = alloca i32, align 4
  %15 = alloca %struct.AVChannelLayout, align 8
  store ptr %0, ptr %5, align 8, !tbaa !4
  store ptr %1, ptr %6, align 8, !tbaa !42
  store ptr %2, ptr %7, align 8, !tbaa !42
  call void @llvm.lifetime.start.p0(i64 8, ptr %8) #9
  %16 = load ptr, ptr %5, align 8, !tbaa !4
  %17 = getelementptr inbounds nuw %struct.AVFilterContext, ptr %16, i32 0, i32 9
  %18 = load ptr, ptr %17, align 8, !tbaa !9
  store ptr %18, ptr %8, align 8, !tbaa !22
  call void @llvm.lifetime.start.p0(i64 8, ptr %9) #9
  store ptr null, ptr %9, align 8, !tbaa !44
  call void @llvm.lifetime.start.p0(i64 8, ptr %10) #9
  store ptr null, ptr %10, align 8, !tbaa !44
  call void @llvm.lifetime.start.p0(i64 8, ptr %11) #9
  store ptr null, ptr %11, align 8, !tbaa !44
  call void @llvm.lifetime.start.p0(i64 4, ptr %12) #9
  call void @llvm.lifetime.start.p0(i64 4, ptr %13) #9
  %19 = load ptr, ptr %5, align 8, !tbaa !4
  %20 = load ptr, ptr %6, align 8, !tbaa !42
  %21 = load ptr, ptr %7, align 8, !tbaa !42
  %22 = call i32 @ff_set_common_formats_from_list2(ptr noundef %19, ptr noundef %20, ptr noundef %21, ptr noundef @query_formats.formats)
  store i32 %22, ptr %12, align 4, !tbaa !24
  %23 = load i32, ptr %12, align 4, !tbaa !24
  %24 = icmp ne i32 %23, 0
  br i1 %24, label %25, label %27

25:                                               ; preds = %3
  %26 = load i32, ptr %12, align 4, !tbaa !24
  store i32 %26, ptr %4, align 4
  store i32 1, ptr %14, align 4
  br label %110

27:                                               ; preds = %3
  %28 = call ptr @ff_all_channel_layouts()
  store ptr %28, ptr %9, align 8, !tbaa !44
  %29 = load ptr, ptr %9, align 8, !tbaa !44
  %30 = icmp ne ptr %29, null
  br i1 %30, label %32, label %31

31:                                               ; preds = %27
  store i32 -12, ptr %4, align 4
  store i32 1, ptr %14, align 4
  br label %110

32:                                               ; preds = %27
  %33 = load ptr, ptr %9, align 8, !tbaa !44
  %34 = load ptr, ptr %6, align 8, !tbaa !42
  %35 = getelementptr inbounds ptr, ptr %34, i64 0
  %36 = load ptr, ptr %35, align 8, !tbaa !46
  %37 = getelementptr inbounds nuw %struct.AVFilterFormatsConfig, ptr %36, i32 0, i32 2
  %38 = call i32 @ff_channel_layouts_ref(ptr noundef %33, ptr noundef %37)
  store i32 %38, ptr %12, align 4, !tbaa !24
  %39 = load i32, ptr %12, align 4, !tbaa !24
  %40 = icmp ne i32 %39, 0
  br i1 %40, label %41, label %43

41:                                               ; preds = %32
  %42 = load i32, ptr %12, align 4, !tbaa !24
  store i32 %42, ptr %4, align 4
  store i32 1, ptr %14, align 4
  br label %110

43:                                               ; preds = %32
  %44 = getelementptr inbounds nuw %struct.AVChannelLayout, ptr %15, i32 0, i32 0
  store i32 1, ptr %44, align 8, !tbaa !48
  %45 = getelementptr inbounds nuw %struct.AVChannelLayout, ptr %15, i32 0, i32 1
  store i32 2, ptr %45, align 4, !tbaa !49
  %46 = getelementptr inbounds nuw %struct.AVChannelLayout, ptr %15, i32 0, i32 2
  store i64 3, ptr %46, align 8, !tbaa !50
  %47 = getelementptr inbounds nuw %struct.AVChannelLayout, ptr %15, i32 0, i32 3
  store ptr null, ptr %47, align 8, !tbaa !51
  %48 = call i32 @ff_add_channel_layout(ptr noundef %10, ptr noundef %15)
  store i32 %48, ptr %12, align 4, !tbaa !24
  %49 = load i32, ptr %12, align 4, !tbaa !24
  %50 = icmp ne i32 %49, 0
  br i1 %50, label %51, label %53

51:                                               ; preds = %43
  %52 = load i32, ptr %12, align 4, !tbaa !24
  store i32 %52, ptr %4, align 4
  store i32 1, ptr %14, align 4
  br label %110

53:                                               ; preds = %43
  %54 = load ptr, ptr %10, align 8, !tbaa !44
  %55 = load ptr, ptr %7, align 8, !tbaa !42
  %56 = getelementptr inbounds ptr, ptr %55, i64 0
  %57 = load ptr, ptr %56, align 8, !tbaa !46
  %58 = getelementptr inbounds nuw %struct.AVFilterFormatsConfig, ptr %57, i32 0, i32 2
  %59 = call i32 @ff_channel_layouts_ref(ptr noundef %54, ptr noundef %58)
  store i32 %59, ptr %12, align 4, !tbaa !24
  %60 = load i32, ptr %12, align 4, !tbaa !24
  %61 = icmp ne i32 %60, 0
  br i1 %61, label %62, label %64

62:                                               ; preds = %53
  %63 = load i32, ptr %12, align 4, !tbaa !24
  store i32 %63, ptr %4, align 4
  store i32 1, ptr %14, align 4
  br label %110

64:                                               ; preds = %53
  %65 = load ptr, ptr %8, align 8, !tbaa !22
  %66 = getelementptr inbounds nuw %struct.HeadphoneContext, ptr %65, i32 0, i32 18
  %67 = load i32, ptr %66, align 4, !tbaa !52
  %68 = icmp eq i32 %67, 1
  br i1 %68, label %69, label %86

69:                                               ; preds = %64
  %70 = call ptr @ff_all_channel_counts()
  store ptr %70, ptr %11, align 8, !tbaa !44
  %71 = load ptr, ptr %11, align 8, !tbaa !44
  %72 = icmp ne ptr %71, null
  br i1 %72, label %74, label %73

73:                                               ; preds = %69
  store i32 -12, ptr %4, align 4
  store i32 1, ptr %14, align 4
  br label %110

74:                                               ; preds = %69
  %75 = load ptr, ptr %11, align 8, !tbaa !44
  %76 = load ptr, ptr %6, align 8, !tbaa !42
  %77 = getelementptr inbounds ptr, ptr %76, i64 1
  %78 = load ptr, ptr %77, align 8, !tbaa !46
  %79 = getelementptr inbounds nuw %struct.AVFilterFormatsConfig, ptr %78, i32 0, i32 2
  %80 = call i32 @ff_channel_layouts_ref(ptr noundef %75, ptr noundef %79)
  store i32 %80, ptr %12, align 4, !tbaa !24
  %81 = load i32, ptr %12, align 4, !tbaa !24
  %82 = icmp ne i32 %81, 0
  br i1 %82, label %83, label %85

83:                                               ; preds = %74
  %84 = load i32, ptr %12, align 4, !tbaa !24
  store i32 %84, ptr %4, align 4
  store i32 1, ptr %14, align 4
  br label %110

85:                                               ; preds = %74
  br label %109

86:                                               ; preds = %64
  store i32 1, ptr %13, align 4, !tbaa !24
  br label %87

87:                                               ; preds = %105, %86
  %88 = load i32, ptr %13, align 4, !tbaa !24
  %89 = load ptr, ptr %8, align 8, !tbaa !22
  %90 = getelementptr inbounds nuw %struct.HeadphoneContext, ptr %89, i32 0, i32 8
  %91 = load i32, ptr %90, align 8, !tbaa !29
  %92 = icmp sle i32 %88, %91
  br i1 %92, label %93, label %108

93:                                               ; preds = %87
  %94 = load ptr, ptr %10, align 8, !tbaa !44
  %95 = load ptr, ptr %6, align 8, !tbaa !42
  %96 = getelementptr inbounds ptr, ptr %95, i64 1
  %97 = load ptr, ptr %96, align 8, !tbaa !46
  %98 = getelementptr inbounds nuw %struct.AVFilterFormatsConfig, ptr %97, i32 0, i32 2
  %99 = call i32 @ff_channel_layouts_ref(ptr noundef %94, ptr noundef %98)
  store i32 %99, ptr %12, align 4, !tbaa !24
  %100 = load i32, ptr %12, align 4, !tbaa !24
  %101 = icmp ne i32 %100, 0
  br i1 %101, label %102, label %104

102:                                              ; preds = %93
  %103 = load i32, ptr %12, align 4, !tbaa !24
  store i32 %103, ptr %4, align 4
  store i32 1, ptr %14, align 4
  br label %110

104:                                              ; preds = %93
  br label %105

105:                                              ; preds = %104
  %106 = load i32, ptr %13, align 4, !tbaa !24
  %107 = add nsw i32 %106, 1
  store i32 %107, ptr %13, align 4, !tbaa !24
  br label %87, !llvm.loop !53

108:                                              ; preds = %87
  br label %109

109:                                              ; preds = %108, %85
  store i32 0, ptr %4, align 4
  store i32 1, ptr %14, align 4
  br label %110

110:                                              ; preds = %109, %102, %83, %73, %62, %51, %41, %31, %25
  call void @llvm.lifetime.end.p0(i64 4, ptr %13) #9
  call void @llvm.lifetime.end.p0(i64 4, ptr %12) #9
  call void @llvm.lifetime.end.p0(i64 8, ptr %11) #9
  call void @llvm.lifetime.end.p0(i64 8, ptr %10) #9
  call void @llvm.lifetime.end.p0(i64 8, ptr %9) #9
  call void @llvm.lifetime.end.p0(i64 8, ptr %8) #9
  %111 = load i32, ptr %4, align 4
  ret i32 %111
}