; Function Attrs: nounwind uwtable
define internal i32 @query_formats(ptr noundef %0, ptr noundef %1, ptr noundef %2) #1 {
  %4 = alloca ptr, align 8
  %5 = alloca %struct.AVChannelLayout, align 8
  %6 = getelementptr inbounds nuw i8, ptr %0, i64 72
  %7 = load ptr, ptr %6, align 8, !tbaa !4
  call void @llvm.lifetime.start.p0(i64 8, ptr nonnull %4) #8
  store ptr null, ptr %4, align 8, !tbaa !38
  %8 = tail call i32 @ff_set_common_formats_from_list2(ptr noundef %0, ptr noundef %1, ptr noundef %2, ptr noundef nonnull @query_formats.formats) #8
  %.not = icmp eq i32 %8, 0
  br i1 %.not, label %9, label %.loopexit45

9:                                                ; preds = %3
  %10 = tail call ptr @ff_all_channel_layouts() #8
  %.not37 = icmp eq ptr %10, null
  br i1 %.not37, label %.loopexit45, label %11

11:                                               ; preds = %9
  %12 = load ptr, ptr %1, align 8, !tbaa !40
  %13 = getelementptr inbounds nuw i8, ptr %12, i64 16
  %14 = tail call i32 @ff_channel_layouts_ref(ptr noundef nonnull %10, ptr noundef nonnull %13) #8
  %.not38 = icmp eq i32 %14, 0
  br i1 %.not38, label %15, label %.loopexit45

15:                                               ; preds = %11
  store i32 1, ptr %5, align 8, !tbaa !42
  %16 = getelementptr inbounds nuw i8, ptr %5, i64 4
  store i32 2, ptr %16, align 4, !tbaa !43
  %17 = getelementptr inbounds nuw i8, ptr %5, i64 8
  store i64 3, ptr %17, align 8, !tbaa !44
  %18 = getelementptr inbounds nuw i8, ptr %5, i64 16
  store ptr null, ptr %18, align 8, !tbaa !45
  %19 = call i32 @ff_add_channel_layout(ptr noundef nonnull %4, ptr noundef nonnull %5) #8
  %.not39 = icmp eq i32 %19, 0
  br i1 %.not39, label %20, label %.loopexit45

20:                                               ; preds = %15
  %21 = load ptr, ptr %4, align 8, !tbaa !38
  %22 = load ptr, ptr %2, align 8, !tbaa !40
  %23 = getelementptr inbounds nuw i8, ptr %22, i64 16
  %24 = call i32 @ff_channel_layouts_ref(ptr noundef %21, ptr noundef nonnull %23) #8
  %.not40 = icmp eq i32 %24, 0
  br i1 %.not40, label %25, label %.loopexit45

25:                                               ; preds = %20
  %26 = getelementptr inbounds nuw i8, ptr %7, i64 100
  %27 = load i32, ptr %26, align 4, !tbaa !28
  %28 = icmp eq i32 %27, 1
  br i1 %28, label %32, label %.preheader

.preheader:                                       ; preds = %25
  %29 = getelementptr inbounds nuw i8, ptr %7, i64 40
  %30 = load i32, ptr %29, align 8, !tbaa !29
  %.not4146 = icmp slt i32 %30, 1
  br i1 %.not4146, label %.loopexit, label %.lr.ph

.lr.ph:                                           ; preds = %.preheader
  %31 = getelementptr inbounds nuw i8, ptr %1, i64 8
  br label %42

32:                                               ; preds = %25
  %33 = call ptr @ff_all_channel_counts() #8
  %.not43 = icmp eq ptr %33, null
  br i1 %.not43, label %.loopexit45, label %34

34:                                               ; preds = %32
  %35 = getelementptr inbounds nuw i8, ptr %1, i64 8
  %36 = load ptr, ptr %35, align 8, !tbaa !40
  %37 = getelementptr inbounds nuw i8, ptr %36, i64 16
  %38 = call i32 @ff_channel_layouts_ref(ptr noundef nonnull %33, ptr noundef nonnull %37) #8
  %.not44 = icmp eq i32 %38, 0
  br i1 %.not44, label %.loopexit, label %.loopexit45

39:                                               ; preds = %42
  %40 = add nuw nsw i32 %.047, 1
  %41 = load i32, ptr %29, align 8, !tbaa !29
  %.not41.not = icmp slt i32 %.047, %41
  br i1 %.not41.not, label %42, label %.loopexit, !llvm.loop !46

42:                                               ; preds = %.lr.ph, %39
  %.047 = phi i32 [ 1, %.lr.ph ], [ %40, %39 ]
  %43 = load ptr, ptr %4, align 8, !tbaa !38
  %44 = load ptr, ptr %31, align 8, !tbaa !40
  %45 = getelementptr inbounds nuw i8, ptr %44, i64 16
  %46 = call i32 @ff_channel_layouts_ref(ptr noundef %43, ptr noundef nonnull %45) #8
  %.not42 = icmp eq i32 %46, 0
  br i1 %.not42, label %39, label %.loopexit45

.loopexit:                                        ; preds = %39, %.preheader, %34
  br label %.loopexit45

.loopexit45:                                      ; preds = %42, %34, %32, %20, %15, %11, %9, %3, %.loopexit
  %.028 = phi i32 [ 0, %.loopexit ], [ %8, %3 ], [ -12, %9 ], [ %14, %11 ], [ %19, %15 ], [ %24, %20 ], [ -12, %32 ], [ %38, %34 ], [ %46, %42 ]
  call void @llvm.lifetime.end.p0(i64 8, ptr nonnull %4) #8
  ret i32 %.028
}